(dp1
Vpynet-rtr2.twb-tech.com
p2
ccopy_reg
_reconstructor
p3
(c__main__
NetworkDevice
p4
c__builtin__
tuple
p5
(I1080348941
I1080332501
I00
ttRp6
sVpynet-rtr1.twb-tech.com
p7
g3
(g4
g5
(I1209900004
I1209512652
I00
ttRp8
s.